target datalayout = "e-m:e-p270:32:32-p271:32:32-p272:64:64-i64:64-i128:128-f80:128-n8:16:32:64-S128"
target triple = "x86_64-pc-linux-gnu"

%struct.AVFilterPad = type { ptr, i32, i32, %union.anon.1, ptr, ptr, ptr }
%union.anon.1 = type { ptr }
%struct.AVFilterContext = type { ptr, ptr, ptr, ptr, ptr, i32, ptr, ptr, i32, ptr, ptr, i32, i32, ptr, ptr, ptr, ptr, i32, ptr, i32, i32 }
%struct.ConcatContext = type { ptr, [2 x i32], i32, i32, i64, i32, i32, ptr }

@.str.12 = private unnamed_addr constant [10 x i8] c"in%d:%c%d\00", align 1
@.str.13 = private unnamed_addr constant [3 x i8] c"va\00", align 1
@.str.14 = private unnamed_addr constant [9 x i8] c"out:%c%d\00", align 1

; Function Attrs: cold nounwind optsize uwtable
define internal i32 @init(ptr noundef %0) #0 {
  %2 = alloca i32, align 4
  %3 = alloca ptr, align 8
  %4 = alloca ptr, align 8
  %5 = alloca i32, align 4
  %6 = alloca i32, align 4
  %7 = alloca i32, align 4
  %8 = alloca i32, align 4
  %9 = alloca %struct.AVFilterPad, align 8
  %10 = alloca i32, align 4
  %11 = alloca %struct.AVFilterPad, align 8
  store ptr %0, ptr %3, align 8, !tbaa !4
  call void @llvm.lifetime.start.p0(i64 8, ptr %4) #9
  %12 = load ptr, ptr %3, align 8, !tbaa !4
  %13 = getelementptr inbounds nuw %struct.AVFilterContext, ptr %12, i32 0, i32 9
  %14 = load ptr, ptr %13, align 8, !tbaa !9
  store ptr %14, ptr %4, align 8, !tbaa !22
  call void @llvm.lifetime.start.p0(i64 4, ptr %5) #9
  call void @llvm.lifetime.start.p0(i64 4, ptr %6) #9
  call void @llvm.lifetime.start.p0(i64 4, ptr %7) #9
  call void @llvm.lifetime.start.p0(i64 4, ptr %8) #9
  store i32 0, ptr %5, align 4, !tbaa !24
  br label %15

15:                                               ; preds = %71, %1
  %16 = load i32, ptr %5, align 4, !tbaa !24
  %17 = load ptr, ptr %4, align 8, !tbaa !22
  %18 = getelementptr inbounds nuw %struct.ConcatContext, ptr %17, i32 0, i32 2
  %19 = load i32, ptr %18, align 8, !tbaa !25
  %20 = icmp ult i32 %16, %19
  br i1 %20, label %21, label %74

21:                                               ; preds = %15
  store i32 0, ptr %6, align 4, !tbaa !24
  br label %22

22:                                               ; preds = %67, %21
  %23 = load i32, ptr %6, align 4, !tbaa !24
  %24 = icmp ult i32 %23, 2
  br i1 %24, label %25, label %70

25:                                               ; preds = %22
  store i32 0, ptr %7, align 4, !tbaa !24
  br label %26

26:                                               ; preds = %63, %25
  %27 = load i32, ptr %7, align 4, !tbaa !24
  %28 = load ptr, ptr %4, align 8, !tbaa !22
  %29 = getelementptr inbounds nuw %struct.ConcatContext, ptr %28, i32 0, i32 1
  %30 = load i32, ptr %6, align 4, !tbaa !24
  %31 = zext i32 %30 to i64
  %32 = getelementptr inbounds nuw [2 x i32], ptr %29, i64 0, i64 %31
  %33 = load i32, ptr %32, align 4, !tbaa !24
  %34 = icmp ult i32 %27, %33
  br i1 %34, label %35, label %66

35:                                               ; preds = %26
  call void @llvm.lifetime.start.p0(i64 48, ptr %9) #9
  call void @llvm.memset.p0.i64(ptr align 8 %9, i8 0, i64 48, i1 false)
  %36 = getelementptr inbounds nuw %struct.AVFilterPad, ptr %9, i32 0, i32 1
  %37 = load i32, ptr %6, align 4, !tbaa !24
  store i32 %37, ptr %36, align 8, !tbaa !29
  %38 = load i32, ptr %6, align 4, !tbaa !24
  %39 = icmp eq i32 %38, 0
  br i1 %39, label %40, label %42

40:                                               ; preds = %35
  %41 = getelementptr inbounds nuw %struct.AVFilterPad, ptr %9, i32 0, i32 3
  store ptr @get_video_buffer, ptr %41, align 8, !tbaa !31
  br label %44

42:                                               ; preds = %35
  %43 = getelementptr inbounds nuw %struct.AVFilterPad, ptr %9, i32 0, i32 3
  store ptr @get_audio_buffer, ptr %43, align 8, !tbaa !31
  br label %44

44:                                               ; preds = %42, %40
  %45 = load i32, ptr %5, align 4, !tbaa !24
  %46 = load i32, ptr %6, align 4, !tbaa !24
  %47 = zext i32 %46 to i64
  %48 = getelementptr inbounds nuw [3 x i8], ptr @.str.13, i64 0, i64 %47
  %49 = load i8, ptr %48, align 1, !tbaa !31
  %50 = sext i8 %49 to i32
  %51 = load i32, ptr %7, align 4, !tbaa !24
  %52 = call ptr (ptr, ...) @av_asprintf(ptr noundef @.str.12, i32 noundef %45, i32 noundef %50, i32 noundef %51)
  %53 = getelementptr inbounds nuw %struct.AVFilterPad, ptr %9, i32 0, i32 0
  store ptr %52, ptr %53, align 8, !tbaa !32
  %54 = load ptr, ptr %3, align 8, !tbaa !4
  %55 = call i32 @ff_append_inpad_free_name(ptr noundef %54, ptr noundef %9)
  store i32 %55, ptr %8, align 4, !tbaa !24
  %56 = icmp slt i32 %55, 0
  br i1 %56, label %57, label %59

57:                                               ; preds = %44
  %58 = load i32, ptr %8, align 4, !tbaa !24
  store i32 %58, ptr %2, align 4
  store i32 1, ptr %10, align 4
  br label %60

59:                                               ; preds = %44
  store i32 0, ptr %10, align 4
  br label %60

60:                                               ; preds = %59, %57
  call void @llvm.lifetime.end.p0(i64 48, ptr %9) #9
  %61 = load i32, ptr %10, align 4
  switch i32 %61, label %135 [
    i32 0, label %62
  ]

62:                                               ; preds = %60
  br label %63

63:                                               ; preds = %62
  %64 = load i32, ptr %7, align 4, !tbaa !24
  %65 = add i32 %64, 1
  store i32 %65, ptr %7, align 4, !tbaa !24
  br label %26, !llvm.loop !33

66:                                               ; preds = %26
  br label %67

67:                                               ; preds = %66
  %68 = load i32, ptr %6, align 4, !tbaa !24
  %69 = add i32 %68, 1
  store i32 %69, ptr %6, align 4, !tbaa !24
  br label %22, !llvm.loop !35

70:                                               ; preds = %22
  br label %71

71:                                               ; preds = %70
  %72 = load i32, ptr %5, align 4, !tbaa !24
  %73 = add i32 %72, 1
  store i32 %73, ptr %5, align 4, !tbaa !24
  br label %15, !llvm.loop !36

74:                                               ; preds = %15
  store i32 0, ptr %6, align 4, !tbaa !24
  br label %75

75:                                               ; preds = %113, %74
  %76 = load i32, ptr %6, align 4, !tbaa !24
  %77 = icmp ult i32 %76, 2
  br i1 %77, label %78, label %116

78:                                               ; preds = %75
  store i32 0, ptr %7, align 4, !tbaa !24
  br label %79

79:                                               ; preds = %109, %78
  %80 = load i32, ptr %7, align 4, !tbaa !24
  %81 = load ptr, ptr %4, align 8, !tbaa !22
  %82 = getelementptr inbounds nuw %struct.ConcatContext, ptr %81, i32 0, i32 1
  %83 = load i32, ptr %6, align 4, !tbaa !24
  %84 = zext i32 %83 to i64
  %85 = getelementptr inbounds nuw [2 x i32], ptr %82, i64 0, i64 %84
  %86 = load i32, ptr %85, align 4, !tbaa !24
  %87 = icmp ult i32 %80, %86
  br i1 %87, label %88, label %112

88:                                               ; preds = %79
  call void @llvm.lifetime.start.p0(i64 48, ptr %11) #9
  call void @llvm.memset.p0.i64(ptr align 8 %11, i8 0, i64 48, i1 false)
  %89 = getelementptr inbounds nuw %struct.AVFilterPad, ptr %11, i32 0, i32 1
  %90 = load i32, ptr %6, align 4, !tbaa !24
  store i32 %90, ptr %89, align 8, !tbaa !29
  %91 = getelementptr inbounds nuw %struct.AVFilterPad, ptr %11, i32 0, i32 6
  store ptr @config_output, ptr %91, align 8, !tbaa !37
  %92 = load i32, ptr %6, align 4, !tbaa !24
  %93 = zext i32 %92 to i64
  %94 = getelementptr inbounds nuw [3 x i8], ptr @.str.13, i64 0, i64 %93
  %95 = load i8, ptr %94, align 1, !tbaa !31
  %96 = sext i8 %95 to i32
  %97 = load i32, ptr %7, align 4, !tbaa !24
  %98 = call ptr (ptr, ...) @av_asprintf(ptr noundef @.str.14, i32 noundef %96, i32 noundef %97)
  %99 = getelementptr inbounds nuw %struct.AVFilterPad, ptr %11, i32 0, i32 0
  store ptr %98, ptr %99, align 8, !tbaa !32
  %100 = load ptr, ptr %3, align 8, !tbaa !4
  %101 = call i32 @ff_append_outpad_free_name(ptr noundef %100, ptr noundef %11)
  store i32 %101, ptr %8, align 4, !tbaa !24
  %102 = icmp slt i32 %101, 0
  br i1 %102, label %103, label %105

103:                                              ; preds = %88
  %104 = load i32, ptr %8, align 4, !tbaa !24
  store i32 %104, ptr %2, align 4
  store i32 1, ptr %10, align 4
  br label %106

105:                                              ; preds = %88
  store i32 0, ptr %10, align 4
  br label %106

106:                                              ; preds = %105, %103
  call void @llvm.lifetime.end.p0(i64 48, ptr %11) #9
  %107 = load i32, ptr %10, align 4
  switch i32 %107, label %135 [
    i32 0, label %108
  ]

108:                                              ; preds = %106
  br label %109

109:                                              ; preds = %108
  %110 = load i32, ptr %7, align 4, !tbaa !24
  %111 = add i32 %110, 1
  store i32 %111, ptr %7, align 4, !tbaa !24
  br label %79, !llvm.loop !38

112:                                              ; preds = %79
  br label %113

113:                                              ; preds = %112
  %114 = load i32, ptr %6, align 4, !tbaa !24
  %115 = add i32 %114, 1
  store i32 %115, ptr %6, align 4, !tbaa !24
  br label %75, !llvm.loop !39

116:                                              ; preds = %75
  %117 = load ptr, ptr %3, align 8, !tbaa !4
  %118 = getelementptr inbounds nuw %struct.AVFilterContext, ptr %117, i32 0, i32 5
  %119 = load i32, ptr %118, align 8, !tbaa !40
  %120 = zext i32 %119 to i64
  %121 = call noalias ptr @av_calloc(i64 noundef %120, i64 noundef 24)
  %122 = load ptr, ptr %4, align 8, !tbaa !22
  %123 = getelementptr inbounds nuw %struct.ConcatContext, ptr %122, i32 0, i32 7
  store ptr %121, ptr %123, align 8, !tbaa !41
  %124 = load ptr, ptr %4, align 8, !tbaa !22
  %125 = getelementptr inbounds nuw %struct.ConcatContext, ptr %124, i32 0, i32 7
  %126 = load ptr, ptr %125, align 8, !tbaa !41
  %127 = icmp ne ptr %126, null
  br i1 %127, label %129, label %128

128:                                              ; preds = %116
  store i32 -12, ptr %2, align 4
  store i32 1, ptr %10, align 4
  br label %135

129:                                              ; preds = %116
  %130 = load ptr, ptr %3, align 8, !tbaa !4
  %131 = getelementptr inbounds nuw %struct.AVFilterContext, ptr %130, i32 0, i32 8
  %132 = load i32, ptr %131, align 8, !tbaa !42
  %133 = load ptr, ptr %4, align 8, !tbaa !22
  %134 = getelementptr inbounds nuw %struct.ConcatContext, ptr %133, i32 0, i32 5
  store i32 %132, ptr %134, align 8, !tbaa !43
  store i32 0, ptr %2, align 4
  store i32 1, ptr %10, align 4
  br label %135

135:                                              ; preds = %129, %128, %106, %60
  call void @llvm.lifetime.end.p0(i64 4, ptr %8) #9
  call void @llvm.lifetime.end.p0(i64 4, ptr %7) #9
  call void @llvm.lifetime.end.p0(i64 4, ptr %6) #9
  call void @llvm.lifetime.end.p0(i64 4, ptr %5) #9
  call void @llvm.lifetime.end.p0(i64 8, ptr %4) #9
  %136 = load i32, ptr %2, align 4
  ret i32 %136
}