; Function Attrs: cold nounwind optsize uwtable
define internal range(i32 -2147483648, 1) i32 @init(ptr noundef %0) #0 {
  %2 = alloca %struct.AVFilterPad, align 8
  %3 = alloca %struct.AVFilterPad, align 8
  %4 = getelementptr inbounds nuw i8, ptr %0, i64 72
  %5 = load ptr, ptr %4, align 8, !tbaa !4
  %6 = getelementptr inbounds nuw i8, ptr %5, i64 16
  %7 = load i32, ptr %6, align 8, !tbaa !20
  %.not57 = icmp eq i32 %7, 0
  br i1 %.not57, label %.preheader45, label %.preheader48.lr.ph

.preheader48.lr.ph:                               ; preds = %1
  %8 = getelementptr inbounds nuw i8, ptr %5, i64 8
  %9 = getelementptr inbounds nuw i8, ptr %2, i64 8
  %10 = getelementptr inbounds nuw i8, ptr %2, i64 16
  br label %.preheader48

.preheader48:                                     ; preds = %.preheader48.lr.ph, %29
  %.04052 = phi i32 [ 0, %.preheader48.lr.ph ], [ %30, %29 ]
  br label %.preheader46

.preheader45:                                     ; preds = %29, %1
  %11 = getelementptr inbounds nuw i8, ptr %5, i64 8
  %12 = getelementptr inbounds nuw i8, ptr %3, i64 8
  %13 = getelementptr inbounds nuw i8, ptr %3, i64 40
  br label %.preheader

.preheader46:                                     ; preds = %.preheader48, %._crit_edge
  %spec.select = phi ptr [ @get_video_buffer, %.preheader48 ], [ @get_audio_buffer, %._crit_edge ]
  %14 = phi i1 [ true, %.preheader48 ], [ false, %._crit_edge ]
  %indvars.iv = phi i64 [ 0, %.preheader48 ], [ 1, %._crit_edge ]
  %15 = getelementptr inbounds nuw [2 x i32], ptr %8, i64 0, i64 %indvars.iv
  %16 = load i32, ptr %15, align 4, !tbaa !24
  %.not58 = icmp eq i32 %16, 0
  br i1 %.not58, label %._crit_edge, label %.lr.ph

.lr.ph:                                           ; preds = %.preheader46
  %17 = getelementptr inbounds nuw [3 x i8], ptr @.str.13, i64 0, i64 %indvars.iv
  %18 = load i8, ptr %17, align 1, !tbaa !25
  %19 = sext i8 %18 to i32
  %20 = trunc nuw nsw i64 %indvars.iv to i32
  br label %25

21:                                               ; preds = %25
  %22 = add nuw i32 %.03650, 1
  %23 = load i32, ptr %15, align 4, !tbaa !24
  %24 = icmp ult i32 %22, %23
  br i1 %24, label %25, label %._crit_edge, !llvm.loop !26

25:                                               ; preds = %.lr.ph, %21
  %.03650 = phi i32 [ 0, %.lr.ph ], [ %22, %21 ]
  call void @llvm.lifetime.start.p0(i64 48, ptr nonnull %2) #8
  call void @llvm.memset.p0.i64(ptr noundef nonnull align 8 dereferenceable(48) %2, i8 0, i64 48, i1 false)
  store i32 %20, ptr %9, align 8, !tbaa !28
  store ptr %spec.select, ptr %10, align 8, !tbaa !25
  %26 = call ptr (ptr, ...) @av_asprintf(ptr noundef nonnull @.str.12, i32 noundef %.04052, i32 noundef %19, i32 noundef %.03650) #8
  store ptr %26, ptr %2, align 8, !tbaa !30
  %27 = call i32 @ff_append_inpad_free_name(ptr noundef %0, ptr noundef nonnull %2) #8
  %28 = icmp sgt i32 %27, -1
  call void @llvm.lifetime.end.p0(i64 48, ptr nonnull %2) #8
  br i1 %28, label %21, label %.loopexit

._crit_edge:                                      ; preds = %21, %.preheader46
  br i1 %14, label %.preheader46, label %29, !llvm.loop !31

29:                                               ; preds = %._crit_edge
  %30 = add nuw i32 %.04052, 1
  %31 = load i32, ptr %6, align 8, !tbaa !20
  %32 = icmp ult i32 %30, %31
  br i1 %32, label %.preheader48, label %.preheader45, !llvm.loop !32

.preheader:                                       ; preds = %.preheader45, %._crit_edge55
  %33 = phi i1 [ true, %.preheader45 ], [ false, %._crit_edge55 ]
  %indvars.iv65 = phi i64 [ 0, %.preheader45 ], [ 1, %._crit_edge55 ]
  %34 = getelementptr inbounds nuw [2 x i32], ptr %11, i64 0, i64 %indvars.iv65
  %35 = load i32, ptr %34, align 4, !tbaa !24
  %.not59 = icmp eq i32 %35, 0
  br i1 %.not59, label %._crit_edge55, label %.lr.ph54

.lr.ph54:                                         ; preds = %.preheader
  %36 = getelementptr inbounds nuw [3 x i8], ptr @.str.13, i64 0, i64 %indvars.iv65
  %37 = load i8, ptr %36, align 1, !tbaa !25
  %38 = sext i8 %37 to i32
  %39 = trunc nuw nsw i64 %indvars.iv65 to i32
  br label %44

40:                                               ; preds = %44
  %41 = add nuw i32 %.13753, 1
  %42 = load i32, ptr %34, align 4, !tbaa !24
  %43 = icmp ult i32 %41, %42
  br i1 %43, label %44, label %._crit_edge55, !llvm.loop !33

44:                                               ; preds = %.lr.ph54, %40
  %.13753 = phi i32 [ 0, %.lr.ph54 ], [ %41, %40 ]
  call void @llvm.lifetime.start.p0(i64 48, ptr nonnull %3) #8
  call void @llvm.memset.p0.i64(ptr noundef nonnull align 8 dereferenceable(48) %3, i8 0, i64 40, i1 false)
  store i32 %39, ptr %12, align 8, !tbaa !28
  store ptr @config_output, ptr %13, align 8, !tbaa !34
  %45 = call ptr (ptr, ...) @av_asprintf(ptr noundef nonnull @.str.14, i32 noundef %38, i32 noundef %.13753) #8
  store ptr %45, ptr %3, align 8, !tbaa !30
  %46 = call i32 @ff_append_outpad_free_name(ptr noundef %0, ptr noundef nonnull %3) #8
  %47 = icmp sgt i32 %46, -1
  call void @llvm.lifetime.end.p0(i64 48, ptr nonnull %3) #8
  br i1 %47, label %40, label %.loopexit

._crit_edge55:                                    ; preds = %40, %.preheader
  br i1 %33, label %.preheader, label %48, !llvm.loop !35

48:                                               ; preds = %._crit_edge55
  %49 = getelementptr inbounds nuw i8, ptr %0, i64 40
  %50 = load i32, ptr %49, align 8, !tbaa !36
  %51 = zext i32 %50 to i64
  %52 = call noalias ptr @av_calloc(i64 noundef %51, i64 noundef 24) #8
  %53 = getelementptr inbounds nuw i8, ptr %5, i64 40
  store ptr %52, ptr %53, align 8, !tbaa !37
  %.not = icmp eq ptr %52, null
  br i1 %.not, label %.loopexit, label %54

54:                                               ; preds = %48
  %55 = getelementptr inbounds nuw i8, ptr %0, i64 64
  %56 = load i32, ptr %55, align 8, !tbaa !38
  %57 = getelementptr inbounds nuw i8, ptr %5, i64 32
  store i32 %56, ptr %57, align 8, !tbaa !39
  br label %.loopexit

.loopexit:                                        ; preds = %25, %44, %48, %54
  %.4 = phi i32 [ 0, %54 ], [ -12, %48 ], [ %46, %44 ], [ %27, %25 ]
  ret i32 %.4
}